; Function Attrs: mustprogress nofree norecurse nosync nounwind memory(argmem: readwrite) uwtable
define noundef signext range(i8 0, 2) i8 @_ZN6icu_7722RuleBasedBreakIterator10BreakCache4seekEi(ptr noundef nonnull align 8 captures(none) dereferenceable(832) %0, i32 noundef %1) local_unnamed_addr #9 align 2 {
  %3 = getelementptr inbounds nuw i8, ptr %0, i64 32
  %4 = getelementptr inbounds nuw i8, ptr %0, i64 16
  %5 = load i32, ptr %4, align 8, !tbaa !73
  %6 = sext i32 %5 to i64
  %7 = getelementptr inbounds [128 x i32], ptr %3, i64 0, i64 %6
  %8 = load i32, ptr %7, align 4, !tbaa !17
  %9 = icmp slt i32 %1, %8
  br i1 %9, label %43, label %10

10:                                               ; preds = %2
  %11 = getelementptr inbounds nuw i8, ptr %0, i64 20
  %12 = load i32, ptr %11, align 4, !tbaa !74
  %13 = sext i32 %12 to i64
  %14 = getelementptr inbounds [128 x i32], ptr %3, i64 0, i64 %13
  %15 = load i32, ptr %14, align 4, !tbaa !17
  %16 = icmp sgt i32 %1, %15
  br i1 %16, label %43, label %17

17:                                               ; preds = %10
  %18 = icmp eq i32 %1, %8
  br i1 %18, label %19, label %21

19:                                               ; preds = %17
  %20 = getelementptr inbounds nuw i8, ptr %0, i64 28
  store i32 %5, ptr %20, align 4, !tbaa !76
  br label %.sink.split

21:                                               ; preds = %17
  %22 = icmp eq i32 %1, %15
  br i1 %22, label %23, label %.preheader

.preheader:                                       ; preds = %21
  %.not23 = icmp eq i32 %5, %12
  br i1 %.not23, label %._crit_edge, label %.lr.ph

23:                                               ; preds = %21
  %24 = getelementptr inbounds nuw i8, ptr %0, i64 28
  store i32 %12, ptr %24, align 4, !tbaa !76
  br label %.sink.split

.lr.ph:                                           ; preds = %.preheader, %.lr.ph
  %.025 = phi i32 [ %.1, %.lr.ph ], [ %12, %.preheader ]
  %.01724 = phi i32 [ %.118, %.lr.ph ], [ %5, %.preheader ]
  %25 = add nsw i32 %.025, %.01724
  %26 = icmp sgt i32 %.01724, %.025
  %27 = select i1 %26, i32 128, i32 0
  %28 = add nsw i32 %25, %27
  %29 = sdiv i32 %28, 2
  %30 = and i32 %29, 127
  %31 = zext nneg i32 %30 to i64
  %32 = getelementptr inbounds nuw [128 x i32], ptr %3, i64 0, i64 %31
  %33 = load i32, ptr %32, align 4, !tbaa !17
  %34 = icmp sgt i32 %33, %1
  %35 = add nsw i32 %29, 1
  %36 = and i32 %35, 127
  %.118 = select i1 %34, i32 %.01724, i32 %36
  %.1 = select i1 %34, i32 %30, i32 %.025
  %.not = icmp eq i32 %.118, %.1
  br i1 %.not, label %._crit_edge, label %.lr.ph, !llvm.loop !80

._crit_edge:                                      ; preds = %.lr.ph, %.preheader
  %.0.lcssa = phi i32 [ %5, %.preheader ], [ %.118, %.lr.ph ]
  %37 = add i32 %.0.lcssa, 127
  %38 = and i32 %37, 127
  %39 = getelementptr inbounds nuw i8, ptr %0, i64 28
  store i32 %38, ptr %39, align 4, !tbaa !76
  %40 = zext nneg i32 %38 to i64
  %41 = getelementptr inbounds nuw [128 x i32], ptr %3, i64 0, i64 %40
  br label %.sink.split

.sink.split:                                      ; preds = %19, %23, %._crit_edge
  %.sink.in = phi ptr [ %41, %._crit_edge ], [ %14, %23 ], [ %7, %19 ]
  %.sink = load i32, ptr %.sink.in, align 4, !tbaa !17
  %42 = getelementptr inbounds nuw i8, ptr %0, i64 24
  store i32 %.sink, ptr %42, align 8, !tbaa !75
  br label %43

43:                                               ; preds = %.sink.split, %2, %10
  %.019 = phi i8 [ 0, %10 ], [ 0, %2 ], [ 1, %.sink.split ]
  ret i8 %.019
}